target datalayout = "e-m:e-p270:32:32-p271:32:32-p272:64:64-i64:64-i128:128-f80:128-n8:16:32:64-S128"
target triple = "x86_64-pc-linux-gnu"

%struct.Abc_Frame_t_ = type { ptr, ptr, ptr, ptr, ptr, ptr, ptr, ptr, ptr, ptr, i32, i32, i32, i32, i32, ptr, float, float, i32, i32, ptr, ptr, ptr, double, double, ptr, ptr, ptr, ptr, ptr, ptr, ptr, ptr, ptr, ptr, ptr, ptr, float, ptr, i32, ptr, ptr, ptr, ptr, ptr, i32, i32, i32, i32, i32, i32, ptr, ptr, ptr, ptr, ptr, ptr, i32, i32, ptr, ptr, ptr, ptr, ptr, ptr, ptr, ptr, ptr, ptr, ptr, ptr, ptr, ptr, ptr, ptr, ptr, ptr, ptr, ptr, ptr, ptr, ptr, ptr, ptr, ptr, ptr, ptr, ptr, ptr }

@globalUtilOptind = external global i32, align 4
@.str.113 = private unnamed_addr constant [4 x i8] c"yes\00", align 1
@.str.114 = private unnamed_addr constant [3 x i8] c"no\00", align 1
@.str.142 = private unnamed_addr constant [16 x i8] c"Empty network.\0A\00", align 1
@.str.233 = private unnamed_addr constant [34 x i8] c"\09-h     : print the help massage\0A\00", align 1
@.str.268 = private unnamed_addr constant [3 x i8] c"lh\00", align 1
@.str.269 = private unnamed_addr constant [30 x i8] c"There is no current network.\0A\00", align 1
@.str.270 = private unnamed_addr constant [33 x i8] c"usage: write_bench [-lh] <file>\0A\00", align 1
@.str.271 = private unnamed_addr constant [46 x i8] c"\09         writes the network in BENCH format\0A\00", align 1
@.str.272 = private unnamed_addr constant [58 x i8] c"\09-l     : toggle using LUTs in the output [default = %s]\0A\00", align 1
@.str.273 = private unnamed_addr constant [60 x i8] c"\09file   : the name of the file to write (extension .bench)\0A\00", align 1

; Function Attrs: nounwind uwtable
define internal i32 @IoCommandWriteBench(ptr noundef %0, i32 noundef %1, ptr noundef %2) #0 {
  %4 = alloca i32, align 4
  %5 = alloca ptr, align 8
  %6 = alloca i32, align 4
  %7 = alloca ptr, align 8
  %8 = alloca ptr, align 8
  %9 = alloca i32, align 4
  %10 = alloca i32, align 4
  %11 = alloca i32, align 4
  %12 = alloca ptr, align 8
  store ptr %0, ptr %5, align 8, !tbaa !3
  store i32 %1, ptr %6, align 4, !tbaa !8
  store ptr %2, ptr %7, align 8, !tbaa !10
  call void @llvm.lifetime.start.p0(i64 8, ptr %8) #11
  call void @llvm.lifetime.start.p0(i64 4, ptr %9) #11
  call void @llvm.lifetime.start.p0(i64 4, ptr %10) #11
  store i32 1, ptr %9, align 4, !tbaa !8
  call void (...) @Extra_UtilGetoptReset()
  br label %13

13:                                               ; preds = %25, %3
  %14 = load i32, ptr %6, align 4, !tbaa !8
  %15 = load ptr, ptr %7, align 8, !tbaa !10
  %16 = call i32 @Extra_UtilGetopt(i32 noundef %14, ptr noundef %15, ptr noundef @.str.268)
  store i32 %16, ptr %10, align 4, !tbaa !8
  %17 = icmp ne i32 %16, -1
  br i1 %17, label %18, label %26

18:                                               ; preds = %13
  %19 = load i32, ptr %10, align 4, !tbaa !8
  switch i32 %19, label %24 [
    i32 108, label %20
    i32 104, label %23
  ]

20:                                               ; preds = %18
  %21 = load i32, ptr %9, align 4, !tbaa !8
  %22 = xor i32 %21, 1
  store i32 %22, ptr %9, align 4, !tbaa !8
  br label %25

23:                                               ; preds = %18
  br label %75

24:                                               ; preds = %18
  br label %75

25:                                               ; preds = %20
  br label %13, !llvm.loop !78

26:                                               ; preds = %13
  %27 = load ptr, ptr %5, align 8, !tbaa !3
  %28 = getelementptr inbounds nuw %struct.Abc_Frame_t_, ptr %27, i32 0, i32 6
  %29 = load ptr, ptr %28, align 8, !tbaa !44
  %30 = icmp eq ptr %29, null
  br i1 %30, label %31, label %36

31:                                               ; preds = %26
  %32 = load ptr, ptr %5, align 8, !tbaa !3
  %33 = getelementptr inbounds nuw %struct.Abc_Frame_t_, ptr %32, i32 0, i32 20
  %34 = load ptr, ptr %33, align 8, !tbaa !45
  %35 = call i32 (ptr, ptr, ...) @fprintf(ptr noundef %34, ptr noundef @.str.142) #11
  store i32 0, ptr %4, align 4
  store i32 1, ptr %11, align 4
  br label %99

36:                                               ; preds = %26
  %37 = load i32, ptr %6, align 4, !tbaa !8
  %38 = load i32, ptr @globalUtilOptind, align 4, !tbaa !8
  %39 = add nsw i32 %38, 1
  %40 = icmp ne i32 %37, %39
  br i1 %40, label %41, label %42

41:                                               ; preds = %36
  br label %75

42:                                               ; preds = %36
  %43 = load ptr, ptr %7, align 8, !tbaa !10
  %44 = load i32, ptr @globalUtilOptind, align 4, !tbaa !8
  %45 = sext i32 %44 to i64
  %46 = getelementptr inbounds ptr, ptr %43, i64 %45
  %47 = load ptr, ptr %46, align 8, !tbaa !14
  store ptr %47, ptr %8, align 8, !tbaa !14
  %48 = load i32, ptr %9, align 4, !tbaa !8
  %49 = icmp ne i32 %48, 0
  br i1 %49, label %55, label %50

50:                                               ; preds = %42
  %51 = load ptr, ptr %5, align 8, !tbaa !3
  %52 = getelementptr inbounds nuw %struct.Abc_Frame_t_, ptr %51, i32 0, i32 6
  %53 = load ptr, ptr %52, align 8, !tbaa !44
  %54 = load ptr, ptr %8, align 8, !tbaa !14
  call void @Io_Write(ptr noundef %53, ptr noundef %54, i32 noundef 6)
  br label %74

55:                                               ; preds = %42
  %56 = load ptr, ptr %5, align 8, !tbaa !3
  %57 = getelementptr inbounds nuw %struct.Abc_Frame_t_, ptr %56, i32 0, i32 6
  %58 = load ptr, ptr %57, align 8, !tbaa !44
  %59 = icmp ne ptr %58, null
  br i1 %59, label %60, label %71

60:                                               ; preds = %55
  call void @llvm.lifetime.start.p0(i64 8, ptr %12) #11
  %61 = load ptr, ptr %5, align 8, !tbaa !3
  %62 = getelementptr inbounds nuw %struct.Abc_Frame_t_, ptr %61, i32 0, i32 6
  %63 = load ptr, ptr %62, align 8, !tbaa !44
  %64 = call ptr @Abc_NtkToNetlist(ptr noundef %63)
  store ptr %64, ptr %12, align 8, !tbaa !18
  %65 = load ptr, ptr %12, align 8, !tbaa !18
  %66 = call i32 @Abc_NtkToAig(ptr noundef %65)
  %67 = load ptr, ptr %12, align 8, !tbaa !18
  %68 = load ptr, ptr %8, align 8, !tbaa !14
  %69 = call i32 @Io_WriteBenchLut(ptr noundef %67, ptr noundef %68)
  %70 = load ptr, ptr %12, align 8, !tbaa !18
  call void @Abc_NtkDelete(ptr noundef %70)
  call void @llvm.lifetime.end.p0(i64 8, ptr %12) #11
  br label %73

71:                                               ; preds = %55
  %72 = call i32 (ptr, ...) @printf(ptr noundef @.str.269)
  br label %73

73:                                               ; preds = %71, %60
  br label %74

74:                                               ; preds = %73, %50
  store i32 0, ptr %4, align 4
  store i32 1, ptr %11, align 4
  br label %99

75:                                               ; preds = %41, %24, %23
  %76 = load ptr, ptr %5, align 8, !tbaa !3
  %77 = getelementptr inbounds nuw %struct.Abc_Frame_t_, ptr %76, i32 0, i32 21
  %78 = load ptr, ptr %77, align 8, !tbaa !24
  %79 = call i32 (ptr, ptr, ...) @fprintf(ptr noundef %78, ptr noundef @.str.270) #11
  %80 = load ptr, ptr %5, align 8, !tbaa !3
  %81 = getelementptr inbounds nuw %struct.Abc_Frame_t_, ptr %80, i32 0, i32 21
  %82 = load ptr, ptr %81, align 8, !tbaa !24
  %83 = call i32 (ptr, ptr, ...) @fprintf(ptr noundef %82, ptr noundef @.str.271) #11
  %84 = load ptr, ptr %5, align 8, !tbaa !3
  %85 = getelementptr inbounds nuw %struct.Abc_Frame_t_, ptr %84, i32 0, i32 21
  %86 = load ptr, ptr %85, align 8, !tbaa !24
  %87 = load i32, ptr %9, align 4, !tbaa !8
  %88 = icmp ne i32 %87, 0
  %89 = select i1 %88, ptr @.str.113, ptr @.str.114
  %90 = call i32 (ptr, ptr, ...) @fprintf(ptr noundef %86, ptr noundef @.str.272, ptr noundef %89) #11
  %91 = load ptr, ptr %5, align 8, !tbaa !3
  %92 = getelementptr inbounds nuw %struct.Abc_Frame_t_, ptr %91, i32 0, i32 21
  %93 = load ptr, ptr %92, align 8, !tbaa !24
  %94 = call i32 (ptr, ptr, ...) @fprintf(ptr noundef %93, ptr noundef @.str.233) #11
  %95 = load ptr, ptr %5, align 8, !tbaa !3
  %96 = getelementptr inbounds nuw %struct.Abc_Frame_t_, ptr %95, i32 0, i32 21
  %97 = load ptr, ptr %96, align 8, !tbaa !24
  %98 = call i32 (ptr, ptr, ...) @fprintf(ptr noundef %97, ptr noundef @.str.273) #11
  store i32 1, ptr %4, align 4
  store i32 1, ptr %11, align 4
  br label %99

99:                                               ; preds = %75, %74, %31
  call void @llvm.lifetime.end.p0(i64 4, ptr %10) #11
  call void @llvm.lifetime.end.p0(i64 4, ptr %9) #11
  call void @llvm.lifetime.end.p0(i64 8, ptr %8) #11
  %100 = load i32, ptr %4, align 4
  ret i32 %100
}