; Function Attrs: nounwind uwtable
define internal range(i32 0, 2) i32 @IoCommandWriteBench(ptr noundef readonly captures(none) %0, i32 noundef %1, ptr noundef %2) #0 {
  tail call void (...) @Extra_UtilGetoptReset() #18
  br label %4

4:                                                ; preds = %6, %3
  %.023 = phi i32 [ 1, %3 ], [ %7, %6 ]
  %5 = tail call i32 @Extra_UtilGetopt(i32 noundef %1, ptr noundef %2, ptr noundef nonnull @.str.268) #18
  switch i32 %5, label %.loopexit [
    i32 -1, label %8
    i32 108, label %6
  ]

6:                                                ; preds = %4
  %7 = xor i32 %.023, 1
  br label %4, !llvm.loop !77

8:                                                ; preds = %4
  %9 = getelementptr inbounds nuw i8, ptr %0, i64 48
  %10 = load ptr, ptr %9, align 8, !tbaa !49
  %11 = icmp eq ptr %10, null
  br i1 %11, label %12, label %16

12:                                               ; preds = %8
  %13 = getelementptr inbounds nuw i8, ptr %0, i64 128
  %14 = load ptr, ptr %13, align 8, !tbaa !50
  %15 = tail call i64 @fwrite(ptr nonnull @.str.142, i64 15, i64 1, ptr %14)
  br label %40

16:                                               ; preds = %8
  %17 = load i32, ptr @globalUtilOptind, align 4, !tbaa !3
  %18 = add nsw i32 %17, 1
  %.not26 = icmp eq i32 %1, %18
  br i1 %.not26, label %19, label %.loopexit

19:                                               ; preds = %16
  %20 = sext i32 %17 to i64
  %21 = getelementptr inbounds ptr, ptr %2, i64 %20
  %22 = load ptr, ptr %21, align 8, !tbaa !9
  %.not27 = icmp eq i32 %.023, 0
  br i1 %.not27, label %23, label %24

23:                                               ; preds = %19
  tail call void @Io_Write(ptr noundef nonnull %10, ptr noundef %22, i32 noundef 6) #18
  br label %40

24:                                               ; preds = %19
  %25 = tail call ptr @Abc_NtkToNetlist(ptr noundef nonnull %10) #18
  %26 = tail call i32 @Abc_NtkToAig(ptr noundef %25) #18
  %27 = tail call i32 @Io_WriteBenchLut(ptr noundef %25, ptr noundef %22) #18
  tail call void @Abc_NtkDelete(ptr noundef %25) #18
  br label %40

.loopexit:                                        ; preds = %4, %16
  %28 = getelementptr inbounds nuw i8, ptr %0, i64 136
  %29 = load ptr, ptr %28, align 8, !tbaa !34
  %30 = tail call i64 @fwrite(ptr nonnull @.str.270, i64 32, i64 1, ptr %29)
  %31 = load ptr, ptr %28, align 8, !tbaa !34
  %32 = tail call i64 @fwrite(ptr nonnull @.str.271, i64 45, i64 1, ptr %31)
  %33 = load ptr, ptr %28, align 8, !tbaa !34
  %.not28 = icmp eq i32 %.023, 0
  %34 = select i1 %.not28, ptr @.str.114, ptr @.str.113
  %35 = tail call i32 (ptr, ptr, ...) @fprintf(ptr noundef %33, ptr noundef nonnull @.str.272, ptr noundef nonnull %34) #18
  %36 = load ptr, ptr %28, align 8, !tbaa !34
  %37 = tail call i64 @fwrite(ptr nonnull @.str.233, i64 33, i64 1, ptr %36)
  %38 = load ptr, ptr %28, align 8, !tbaa !34
  %39 = tail call i64 @fwrite(ptr nonnull @.str.273, i64 59, i64 1, ptr %38)
  br label %40

40:                                               ; preds = %23, %24, %.loopexit, %12
  %.0 = phi i32 [ 1, %.loopexit ], [ 0, %12 ], [ 0, %24 ], [ 0, %23 ]
  ret i32 %.0
}